target datalayout = "e-m:e-p270:32:32-p271:32:32-p272:64:64-i64:64-i128:128-f80:128-n8:16:32:64-S128"
target triple = "x86_64-pc-linux-gnu"

%"class.llvm::Value" = type { i8, i8, i16, i32, ptr, ptr }
%union.anon.194 = type { i64 }
%"class.llvm::APInt" = type <{ %union.anon.194, i32, [4 x i8] }>
%"class.llvm::User" = type { %"class.llvm::Value" }
%"class.llvm::Constant" = type { %"class.llvm::User" }
%"class.llvm::ConstantInt" = type { %"class.llvm::ConstantData", %"class.llvm::APInt" }
%"class.llvm::ConstantData" = type { %"class.llvm::Constant" }

; Function Attrs: mustprogress nounwind uwtable
define linkonce_odr hidden noundef zeroext i1 @_ZNK4llvm5APInt6isZeroEv(ptr noundef nonnull align 8 dereferenceable(12) %0) #0 comdat align 2 {
  %2 = alloca i1, align 1
  %3 = alloca ptr, align 8
  store ptr %0, ptr %3, align 8
  %4 = load ptr, ptr %3, align 8
  %5 = call noundef zeroext i1 @_ZNK4llvm5APInt12isSingleWordEv(ptr noundef nonnull align 8 dereferenceable(12) %4)
  br i1 %5, label %6, label %10

6:                                                ; preds = %1
  %7 = getelementptr inbounds nuw %"class.llvm::APInt", ptr %4, i32 0, i32 0
  %8 = load i64, ptr %7, align 8
  %9 = icmp eq i64 %8, 0
  store i1 %9, ptr %2, align 1
  br label %15

10:                                               ; preds = %1
  %11 = call noundef i32 @_ZNK4llvm5APInt25countLeadingZerosSlowCaseEv(ptr noundef nonnull align 8 dereferenceable(12) %4) #12
  %12 = getelementptr inbounds nuw %"class.llvm::APInt", ptr %4, i32 0, i32 1
  %13 = load i32, ptr %12, align 8
  %14 = icmp eq i32 %11, %13
  store i1 %14, ptr %2, align 1
  br label %15

15:                                               ; preds = %10, %6
  %16 = load i1, ptr %2, align 1
  ret i1 %16
}

; Function Attrs: mustprogress nounwind uwtable
define linkonce_odr hidden noundef zeroext i1 @_ZNK4llvm5APInt12needsCleanupEv(ptr noundef nonnull align 8 dereferenceable(12) %0) #0 comdat align 2 {
  %2 = alloca ptr, align 8
  store ptr %0, ptr %2, align 8
  %3 = load ptr, ptr %2, align 8
  %4 = call noundef zeroext i1 @_ZNK4llvm5APInt12isSingleWordEv(ptr noundef nonnull align 8 dereferenceable(12) %3)
  %5 = xor i1 %4, true
  ret i1 %5
}

; Function Attrs: mustprogress nounwind uwtable
define linkonce_odr hidden noundef zeroext i1 @_ZNK4llvm5APInt12isSingleWordEv(ptr noundef nonnull align 8 dereferenceable(12) %0) #0 comdat align 2 {
  %2 = alloca ptr, align 8
  store ptr %0, ptr %2, align 8
  %3 = load ptr, ptr %2, align 8
  %4 = getelementptr inbounds nuw %"class.llvm::APInt", ptr %3, i32 0, i32 1
  %5 = load i32, ptr %4, align 8
  %6 = icmp ule i32 %5, 64
  ret i1 %6
}

; Function Attrs: mustprogress nounwind uwtable
define linkonce_odr hidden noundef zeroext i1 @_ZNK4llvm11ConstantInt6isZeroEv(ptr noundef nonnull align 8 dereferenceable(40) %0) #0 comdat align 2 {
  %2 = alloca ptr, align 8
  store ptr %0, ptr %2, align 8
  %3 = load ptr, ptr %2, align 8
  %4 = getelementptr inbounds nuw %"class.llvm::ConstantInt", ptr %3, i32 0, i32 1
  %5 = call noundef zeroext i1 @_ZNK4llvm5APInt6isZeroEv(ptr noundef nonnull align 8 dereferenceable(12) %4)
  ret i1 %5
}

; Function Attrs: mustprogress nounwind uwtable
define linkonce_odr hidden void @_ZN4llvm5APIntD2Ev(ptr noundef nonnull align 8 dereferenceable(12) %0) unnamed_addr #0 comdat align 2 {
  %2 = alloca ptr, align 8
  store ptr %0, ptr %2, align 8
  %3 = load ptr, ptr %2, align 8
  %4 = call noundef zeroext i1 @_ZNK4llvm5APInt12needsCleanupEv(ptr noundef nonnull align 8 dereferenceable(12) %3)
  br i1 %4, label %5, label %11

5:                                                ; preds = %1
  %6 = getelementptr inbounds nuw %"class.llvm::APInt", ptr %3, i32 0, i32 0
  %7 = load ptr, ptr %6, align 8
  %8 = icmp eq ptr %7, null
  br i1 %8, label %10, label %9

9:                                                ; preds = %5
  call void @_ZdaPv(ptr noundef %7) #14
  br label %10

10:                                               ; preds = %9, %5
  br label %11

11:                                               ; preds = %10, %1
  ret void
}

; Function Attrs: mustprogress nounwind uwtable
define linkonce_odr hidden noundef nonnull align 8 dereferenceable(12) ptr @_ZN4llvm5APIntaSEOS0_(ptr noundef nonnull align 8 dereferenceable(12) %0, ptr noundef nonnull align 8 dereferenceable(12) %1) #0 comdat align 2 {
  %3 = alloca ptr, align 8
  %4 = alloca ptr, align 8
  store ptr %0, ptr %3, align 8
  store ptr %1, ptr %4, align 8
  %5 = load ptr, ptr %3, align 8
  %6 = call noundef zeroext i1 @_ZNK4llvm5APInt12isSingleWordEv(ptr noundef nonnull align 8 dereferenceable(12) %5)
  br i1 %6, label %13, label %7

7:                                                ; preds = %2
  %8 = getelementptr inbounds nuw %"class.llvm::APInt", ptr %5, i32 0, i32 0
  %9 = load ptr, ptr %8, align 8
  %10 = icmp eq ptr %9, null
  br i1 %10, label %12, label %11

11:                                               ; preds = %7
  call void @_ZdaPv(ptr noundef %9) #14
  br label %12

12:                                               ; preds = %11, %7
  br label %13

13:                                               ; preds = %12, %2
  %14 = getelementptr inbounds nuw %"class.llvm::APInt", ptr %5, i32 0, i32 0
  %15 = load ptr, ptr %4, align 8
  %16 = getelementptr inbounds nuw %"class.llvm::APInt", ptr %15, i32 0, i32 0
  call void @llvm.memcpy.p0.p0.i64(ptr align 8 %14, ptr align 8 %16, i64 8, i1 false)
  %17 = load ptr, ptr %4, align 8
  %18 = getelementptr inbounds nuw %"class.llvm::APInt", ptr %17, i32 0, i32 1
  %19 = load i32, ptr %18, align 8
  %20 = getelementptr inbounds nuw %"class.llvm::APInt", ptr %5, i32 0, i32 1
  store i32 %19, ptr %20, align 8
  %21 = load ptr, ptr %4, align 8
  %22 = getelementptr inbounds nuw %"class.llvm::APInt", ptr %21, i32 0, i32 1
  store i32 0, ptr %22, align 8
  ret ptr %5
}

; Function Attrs: mustprogress nounwind uwtable
define linkonce_odr hidden noundef nonnull align 8 dereferenceable(12) ptr @_ZNK4llvm11ConstantInt8getValueEv(ptr noundef nonnull align 8 dereferenceable(40) %0) #0 comdat align 2 {
  %2 = alloca ptr, align 8
  store ptr %0, ptr %2, align 8
  %3 = load ptr, ptr %2, align 8
  %4 = getelementptr inbounds nuw %"class.llvm::ConstantInt", ptr %3, i32 0, i32 1
  ret ptr %4
}

; Function Attrs: mustprogress nounwind uwtable
define internal noundef zeroext i1 @_ZN12_GLOBAL__N_122mayHaveIntegerOverflowEPN4llvm11ConstantIntES2_N5clang18BinaryOperatorKindEbRNS0_5APIntE(ptr noundef %0, ptr noundef %1, i32 noundef %2, i1 noundef zeroext %3, ptr noundef nonnull align 8 dereferenceable(12) %4) #0 {
  %6 = alloca i1, align 1
  %7 = alloca ptr, align 8
  %8 = alloca ptr, align 8
  %9 = alloca i32, align 4
  %10 = alloca i8, align 1
  %11 = alloca ptr, align 8
  %12 = alloca i8, align 1
  %13 = alloca ptr, align 8
  %14 = alloca ptr, align 8
  %15 = alloca %"class.llvm::APInt", align 8
  %16 = alloca %"class.llvm::APInt", align 8
  %17 = alloca %"class.llvm::APInt", align 8
  %18 = alloca %"class.llvm::APInt", align 8
  store ptr %0, ptr %7, align 8
  store ptr %1, ptr %8, align 8
  store i32 %2, ptr %9, align 4
  %19 = zext i1 %3 to i8
  store i8 %19, ptr %10, align 1
  store ptr %4, ptr %11, align 8
  store i8 1, ptr %12, align 1
  %20 = load ptr, ptr %7, align 8
  %21 = call noundef nonnull align 8 dereferenceable(12) ptr @_ZNK4llvm11ConstantInt8getValueEv(ptr noundef nonnull align 8 dereferenceable(40) %20)
  store ptr %21, ptr %13, align 8
  %22 = load ptr, ptr %8, align 8
  %23 = call noundef nonnull align 8 dereferenceable(12) ptr @_ZNK4llvm11ConstantInt8getValueEv(ptr noundef nonnull align 8 dereferenceable(40) %22)
  store ptr %23, ptr %14, align 8
  %24 = load i32, ptr %9, align 4
  %25 = icmp eq i32 %24, 5
  br i1 %25, label %26, label %38

26:                                               ; preds = %5
  %27 = load i8, ptr %10, align 1
  %28 = trunc i8 %27 to i1
  br i1 %28, label %29, label %32

29:                                               ; preds = %26
  %30 = load ptr, ptr %13, align 8
  %31 = load ptr, ptr %14, align 8
  call void @_ZNK4llvm5APInt7sadd_ovERKS0_Rb(ptr dead_on_unwind writable sret(%"class.llvm::APInt") align 8 %15, ptr noundef nonnull align 8 dereferenceable(12) %30, ptr noundef nonnull align 8 dereferenceable(12) %31, ptr noundef nonnull align 1 dereferenceable(1) %12)
  br label %35

32:                                               ; preds = %26
  %33 = load ptr, ptr %13, align 8
  %34 = load ptr, ptr %14, align 8
  call void @_ZNK4llvm5APInt7uadd_ovERKS0_Rb(ptr dead_on_unwind writable sret(%"class.llvm::APInt") align 8 %15, ptr noundef nonnull align 8 dereferenceable(12) %33, ptr noundef nonnull align 8 dereferenceable(12) %34, ptr noundef nonnull align 1 dereferenceable(1) %12)
  br label %35

35:                                               ; preds = %32, %29
  %36 = load ptr, ptr %11, align 8
  %37 = call noundef nonnull align 8 dereferenceable(12) ptr @_ZN4llvm5APIntaSEOS0_(ptr noundef nonnull align 8 dereferenceable(12) %36, ptr noundef nonnull align 8 dereferenceable(12) %15)
  call void @_ZN4llvm5APIntD2Ev(ptr noundef nonnull align 8 dereferenceable(12) %15) #13
  br label %90

38:                                               ; preds = %5
  %39 = load i32, ptr %9, align 4
  %40 = icmp eq i32 %39, 6
  br i1 %40, label %41, label %53

41:                                               ; preds = %38
  %42 = load i8, ptr %10, align 1
  %43 = trunc i8 %42 to i1
  br i1 %43, label %44, label %47

44:                                               ; preds = %41
  %45 = load ptr, ptr %13, align 8
  %46 = load ptr, ptr %14, align 8
  call void @_ZNK4llvm5APInt7ssub_ovERKS0_Rb(ptr dead_on_unwind writable sret(%"class.llvm::APInt") align 8 %16, ptr noundef nonnull align 8 dereferenceable(12) %45, ptr noundef nonnull align 8 dereferenceable(12) %46, ptr noundef nonnull align 1 dereferenceable(1) %12)
  br label %50

47:                                               ; preds = %41
  %48 = load ptr, ptr %13, align 8
  %49 = load ptr, ptr %14, align 8
  call void @_ZNK4llvm5APInt7usub_ovERKS0_Rb(ptr dead_on_unwind writable sret(%"class.llvm::APInt") align 8 %16, ptr noundef nonnull align 8 dereferenceable(12) %48, ptr noundef nonnull align 8 dereferenceable(12) %49, ptr noundef nonnull align 1 dereferenceable(1) %12)
  br label %50

50:                                               ; preds = %47, %44
  %51 = load ptr, ptr %11, align 8
  %52 = call noundef nonnull align 8 dereferenceable(12) ptr @_ZN4llvm5APIntaSEOS0_(ptr noundef nonnull align 8 dereferenceable(12) %51, ptr noundef nonnull align 8 dereferenceable(12) %16)
  call void @_ZN4llvm5APIntD2Ev(ptr noundef nonnull align 8 dereferenceable(12) %16) #13
  br label %89

53:                                               ; preds = %38
  %54 = load i32, ptr %9, align 4
  %55 = icmp eq i32 %54, 2
  br i1 %55, label %56, label %68

56:                                               ; preds = %53
  %57 = load i8, ptr %10, align 1
  %58 = trunc i8 %57 to i1
  br i1 %58, label %59, label %62

59:                                               ; preds = %56
  %60 = load ptr, ptr %13, align 8
  %61 = load ptr, ptr %14, align 8
  call void @_ZNK4llvm5APInt7smul_ovERKS0_Rb(ptr dead_on_unwind writable sret(%"class.llvm::APInt") align 8 %17, ptr noundef nonnull align 8 dereferenceable(12) %60, ptr noundef nonnull align 8 dereferenceable(12) %61, ptr noundef nonnull align 1 dereferenceable(1) %12)
  br label %65

62:                                               ; preds = %56
  %63 = load ptr, ptr %13, align 8
  %64 = load ptr, ptr %14, align 8
  call void @_ZNK4llvm5APInt7umul_ovERKS0_Rb(ptr dead_on_unwind writable sret(%"class.llvm::APInt") align 8 %17, ptr noundef nonnull align 8 dereferenceable(12) %63, ptr noundef nonnull align 8 dereferenceable(12) %64, ptr noundef nonnull align 1 dereferenceable(1) %12)
  br label %65

65:                                               ; preds = %62, %59
  %66 = load ptr, ptr %11, align 8
  %67 = call noundef nonnull align 8 dereferenceable(12) ptr @_ZN4llvm5APIntaSEOS0_(ptr noundef nonnull align 8 dereferenceable(12) %66, ptr noundef nonnull align 8 dereferenceable(12) %17)
  call void @_ZN4llvm5APIntD2Ev(ptr noundef nonnull align 8 dereferenceable(12) %17) #13
  br label %88

68:                                               ; preds = %53
  %69 = load i32, ptr %9, align 4
  %70 = icmp eq i32 %69, 3
  br i1 %70, label %74, label %71

71:                                               ; preds = %68
  %72 = load i32, ptr %9, align 4
  %73 = icmp eq i32 %72, 4
  br i1 %73, label %74, label %87

74:                                               ; preds = %71, %68
  %75 = load i8, ptr %10, align 1
  %76 = trunc i8 %75 to i1
  br i1 %76, label %77, label %85

77:                                               ; preds = %74
  %78 = load ptr, ptr %8, align 8
  %79 = call noundef zeroext i1 @_ZNK4llvm11ConstantInt6isZeroEv(ptr noundef nonnull align 8 dereferenceable(40) %78)
  br i1 %79, label %85, label %80

80:                                               ; preds = %77
  %81 = load ptr, ptr %13, align 8
  %82 = load ptr, ptr %14, align 8
  call void @_ZNK4llvm5APInt7sdiv_ovERKS0_Rb(ptr dead_on_unwind writable sret(%"class.llvm::APInt") align 8 %18, ptr noundef nonnull align 8 dereferenceable(12) %81, ptr noundef nonnull align 8 dereferenceable(12) %82, ptr noundef nonnull align 1 dereferenceable(1) %12)
  %83 = load ptr, ptr %11, align 8
  %84 = call noundef nonnull align 8 dereferenceable(12) ptr @_ZN4llvm5APIntaSEOS0_(ptr noundef nonnull align 8 dereferenceable(12) %83, ptr noundef nonnull align 8 dereferenceable(12) %18)
  call void @_ZN4llvm5APIntD2Ev(ptr noundef nonnull align 8 dereferenceable(12) %18) #13
  br label %86

85:                                               ; preds = %77, %74
  store i1 false, ptr %6, align 1
  br label %93

86:                                               ; preds = %80
  br label %87

87:                                               ; preds = %86, %71
  br label %88

88:                                               ; preds = %87, %65
  br label %89

89:                                               ; preds = %88, %50
  br label %90

90:                                               ; preds = %89, %35
  %91 = load i8, ptr %12, align 1
  %92 = trunc i8 %91 to i1
  store i1 %92, ptr %6, align 1
  br label %93

93:                                               ; preds = %90, %85
  %94 = load i1, ptr %6, align 1
  ret i1 %94
}