; Function Attrs: mustprogress nounwind uwtable
define internal fastcc noundef zeroext i1 @_ZN12_GLOBAL__N_122mayHaveIntegerOverflowEPN4llvm11ConstantIntES2_N5clang18BinaryOperatorKindEbRNS0_5APIntE(ptr noundef nonnull %0, ptr noundef nonnull %1, i32 noundef %2, i1 noundef zeroext %3, ptr noundef nonnull align 8 captures(none) dereferenceable(12) %4) unnamed_addr #0 {
  %6 = alloca i8, align 1
  %7 = alloca %"class.llvm::APInt", align 8
  %8 = alloca %"class.llvm::APInt", align 8
  %9 = alloca %"class.llvm::APInt", align 8
  %10 = alloca %"class.llvm::APInt", align 8
  store i8 1, ptr %6, align 1
  %11 = getelementptr inbounds nuw i8, ptr %0, i64 24
  %12 = getelementptr inbounds nuw i8, ptr %1, i64 24
  switch i32 %2, label %55 [
    i32 5, label %13
    i32 6, label %27
    i32 2, label %41
  ]

13:                                               ; preds = %5
  br i1 %3, label %14, label %15

14:                                               ; preds = %13
  call void @_ZNK4llvm5APInt7sadd_ovERKS0_Rb(ptr dead_on_unwind nonnull writable sret(%"class.llvm::APInt") align 8 %7, ptr noundef nonnull align 8 dereferenceable(12) %11, ptr noundef nonnull align 8 dereferenceable(12) %12, ptr noundef nonnull align 1 dereferenceable(1) %6) #19
  br label %16

15:                                               ; preds = %13
  call void @_ZNK4llvm5APInt7uadd_ovERKS0_Rb(ptr dead_on_unwind nonnull writable sret(%"class.llvm::APInt") align 8 %7, ptr noundef nonnull align 8 dereferenceable(12) %11, ptr noundef nonnull align 8 dereferenceable(12) %12, ptr noundef nonnull align 1 dereferenceable(1) %6) #19
  br label %16

16:                                               ; preds = %15, %14
  %17 = getelementptr inbounds nuw i8, ptr %4, i64 8
  %18 = load i32, ptr %17, align 8
  %19 = icmp ult i32 %18, 65
  br i1 %19, label %_ZN4llvm5APIntD2Ev.exit, label %20

20:                                               ; preds = %16
  %21 = load ptr, ptr %4, align 8
  %22 = icmp eq ptr %21, null
  br i1 %22, label %_ZN4llvm5APIntD2Ev.exit, label %23

23:                                               ; preds = %20
  call void @_ZdaPv(ptr noundef nonnull %21) #23
  br label %_ZN4llvm5APIntD2Ev.exit

_ZN4llvm5APIntD2Ev.exit:                          ; preds = %23, %20, %16
  %24 = load i64, ptr %7, align 8
  store i64 %24, ptr %4, align 8
  %25 = getelementptr inbounds nuw i8, ptr %7, i64 8
  %26 = load i32, ptr %25, align 8
  store i32 %26, ptr %17, align 8
  br label %78

27:                                               ; preds = %5
  br i1 %3, label %28, label %29

28:                                               ; preds = %27
  call void @_ZNK4llvm5APInt7ssub_ovERKS0_Rb(ptr dead_on_unwind nonnull writable sret(%"class.llvm::APInt") align 8 %8, ptr noundef nonnull align 8 dereferenceable(12) %11, ptr noundef nonnull align 8 dereferenceable(12) %12, ptr noundef nonnull align 1 dereferenceable(1) %6) #19
  br label %30

29:                                               ; preds = %27
  call void @_ZNK4llvm5APInt7usub_ovERKS0_Rb(ptr dead_on_unwind nonnull writable sret(%"class.llvm::APInt") align 8 %8, ptr noundef nonnull align 8 dereferenceable(12) %11, ptr noundef nonnull align 8 dereferenceable(12) %12, ptr noundef nonnull align 1 dereferenceable(1) %6) #19
  br label %30

30:                                               ; preds = %29, %28
  %31 = getelementptr inbounds nuw i8, ptr %4, i64 8
  %32 = load i32, ptr %31, align 8
  %33 = icmp ult i32 %32, 65
  br i1 %33, label %_ZN4llvm5APIntD2Ev.exit33, label %34

34:                                               ; preds = %30
  %35 = load ptr, ptr %4, align 8
  %36 = icmp eq ptr %35, null
  br i1 %36, label %_ZN4llvm5APIntD2Ev.exit33, label %37

37:                                               ; preds = %34
  call void @_ZdaPv(ptr noundef nonnull %35) #23
  br label %_ZN4llvm5APIntD2Ev.exit33

_ZN4llvm5APIntD2Ev.exit33:                        ; preds = %37, %34, %30
  %38 = load i64, ptr %8, align 8
  store i64 %38, ptr %4, align 8
  %39 = getelementptr inbounds nuw i8, ptr %8, i64 8
  %40 = load i32, ptr %39, align 8
  store i32 %40, ptr %31, align 8
  br label %78

41:                                               ; preds = %5
  br i1 %3, label %42, label %43

42:                                               ; preds = %41
  call void @_ZNK4llvm5APInt7smul_ovERKS0_Rb(ptr dead_on_unwind nonnull writable sret(%"class.llvm::APInt") align 8 %9, ptr noundef nonnull align 8 dereferenceable(12) %11, ptr noundef nonnull align 8 dereferenceable(12) %12, ptr noundef nonnull align 1 dereferenceable(1) %6) #19
  br label %44

43:                                               ; preds = %41
  call void @_ZNK4llvm5APInt7umul_ovERKS0_Rb(ptr dead_on_unwind nonnull writable sret(%"class.llvm::APInt") align 8 %9, ptr noundef nonnull align 8 dereferenceable(12) %11, ptr noundef nonnull align 8 dereferenceable(12) %12, ptr noundef nonnull align 1 dereferenceable(1) %6) #19
  br label %44

44:                                               ; preds = %43, %42
  %45 = getelementptr inbounds nuw i8, ptr %4, i64 8
  %46 = load i32, ptr %45, align 8
  %47 = icmp ult i32 %46, 65
  br i1 %47, label %_ZN4llvm5APIntD2Ev.exit35, label %48

48:                                               ; preds = %44
  %49 = load ptr, ptr %4, align 8
  %50 = icmp eq ptr %49, null
  br i1 %50, label %_ZN4llvm5APIntD2Ev.exit35, label %51

51:                                               ; preds = %48
  call void @_ZdaPv(ptr noundef nonnull %49) #23
  br label %_ZN4llvm5APIntD2Ev.exit35

_ZN4llvm5APIntD2Ev.exit35:                        ; preds = %51, %48, %44
  %52 = load i64, ptr %9, align 8
  store i64 %52, ptr %4, align 8
  %53 = getelementptr inbounds nuw i8, ptr %9, i64 8
  %54 = load i32, ptr %53, align 8
  store i32 %54, ptr %45, align 8
  br label %78

55:                                               ; preds = %5
  %56 = add i32 %2, -3
  %or.cond = icmp ult i32 %56, 2
  br i1 %or.cond, label %57, label %78

57:                                               ; preds = %55
  br i1 %3, label %58, label %81

58:                                               ; preds = %57
  %59 = getelementptr inbounds nuw i8, ptr %1, i64 32
  %60 = load i32, ptr %59, align 8
  %61 = icmp ult i32 %60, 65
  br i1 %61, label %62, label %_ZNK4llvm11ConstantInt6isZeroEv.exit

62:                                               ; preds = %58
  %63 = load i64, ptr %12, align 8
  %64 = icmp eq i64 %63, 0
  br i1 %64, label %81, label %67

_ZNK4llvm11ConstantInt6isZeroEv.exit:             ; preds = %58
  %65 = tail call noundef i32 @_ZNK4llvm5APInt25countLeadingZerosSlowCaseEv(ptr noundef nonnull align 8 dereferenceable(12) %12) #20
  %66 = icmp eq i32 %65, %60
  br i1 %66, label %81, label %67

67:                                               ; preds = %62, %_ZNK4llvm11ConstantInt6isZeroEv.exit
  call void @_ZNK4llvm5APInt7sdiv_ovERKS0_Rb(ptr dead_on_unwind nonnull writable sret(%"class.llvm::APInt") align 8 %10, ptr noundef nonnull align 8 dereferenceable(12) %11, ptr noundef nonnull align 8 dereferenceable(12) %12, ptr noundef nonnull align 1 dereferenceable(1) %6) #19
  %68 = getelementptr inbounds nuw i8, ptr %4, i64 8
  %69 = load i32, ptr %68, align 8
  %70 = icmp ult i32 %69, 65
  br i1 %70, label %_ZN4llvm5APIntD2Ev.exit37, label %71

71:                                               ; preds = %67
  %72 = load ptr, ptr %4, align 8
  %73 = icmp eq ptr %72, null
  br i1 %73, label %_ZN4llvm5APIntD2Ev.exit37, label %74

74:                                               ; preds = %71
  call void @_ZdaPv(ptr noundef nonnull %72) #23
  br label %_ZN4llvm5APIntD2Ev.exit37

_ZN4llvm5APIntD2Ev.exit37:                        ; preds = %74, %71, %67
  %75 = load i64, ptr %10, align 8
  store i64 %75, ptr %4, align 8
  %76 = getelementptr inbounds nuw i8, ptr %10, i64 8
  %77 = load i32, ptr %76, align 8
  store i32 %77, ptr %68, align 8
  br label %78

78:                                               ; preds = %_ZN4llvm5APIntD2Ev.exit33, %_ZN4llvm5APIntD2Ev.exit37, %55, %_ZN4llvm5APIntD2Ev.exit35, %_ZN4llvm5APIntD2Ev.exit
  %79 = load i8, ptr %6, align 1
  %80 = trunc i8 %79 to i1
  br label %81

81:                                               ; preds = %62, %57, %_ZNK4llvm11ConstantInt6isZeroEv.exit, %78
  %.0 = phi i1 [ %80, %78 ], [ false, %_ZNK4llvm11ConstantInt6isZeroEv.exit ], [ false, %57 ], [ false, %62 ]
  ret i1 %.0
}